target datalayout = "e-m:e-p270:32:32-p271:32:32-p272:64:64-i64:64-i128:128-f80:128-n8:16:32:64-S128"
target triple = "x86_64-pc-linux-gnu"

@_ZTISt15underflow_error = external constant ptr
@.str.20 = private unnamed_addr constant [58 x i8] c"Attempt to trim more bytes than are present in IOBufQueue\00", align 1

; Function Attrs: mustprogress uwtable
define void @_ZN5folly10IOBufQueue7trimEndEm(ptr noundef nonnull align 8 dereferenceable(64) %0, i64 noundef %1) #0 align 2 personality ptr @__gxx_personality_v0 {
  %3 = alloca ptr, align 8
  %4 = alloca i64, align 8
  %5 = alloca i64, align 8
  %6 = alloca ptr, align 8
  %7 = alloca i32, align 4
  store ptr %0, ptr %3, align 8, !tbaa !7
  store i64 %1, ptr %4, align 8, !tbaa !71
  %8 = load ptr, ptr %3, align 8
  call void @llvm.lifetime.start.p0(i64 8, ptr %5) #15
  %9 = load i64, ptr %4, align 8, !tbaa !71
  %10 = call noundef i64 @_ZN5folly10IOBufQueue13trimEndAtMostEm(ptr noundef nonnull align 8 dereferenceable(64) %8, i64 noundef %9)
  store i64 %10, ptr %5, align 8, !tbaa !71
  %11 = load i64, ptr %5, align 8, !tbaa !71
  %12 = load i64, ptr %4, align 8, !tbaa !71
  %13 = icmp ne i64 %11, %12
  br i1 %13, label %14, label %21

14:                                               ; preds = %2
  %15 = call ptr @__cxa_allocate_exception(i64 16) #15
  invoke void @_ZNSt15underflow_errorC1EPKc(ptr noundef nonnull align 8 dereferenceable(16) %15, ptr noundef @.str.20)
          to label %16 unwind label %17

16:                                               ; preds = %14
  call void @__cxa_throw(ptr %15, ptr @_ZTISt15underflow_error, ptr @_ZNSt15underflow_errorD1Ev) #17
  unreachable

17:                                               ; preds = %14
  %18 = landingpad { ptr, i32 }
          cleanup
  %19 = extractvalue { ptr, i32 } %18, 0
  store ptr %19, ptr %6, align 8
  %20 = extractvalue { ptr, i32 } %18, 1
  store i32 %20, ptr %7, align 4
  call void @__cxa_free_exception(ptr %15) #15
  call void @llvm.lifetime.end.p0(i64 8, ptr %5) #15
  br label %22

21:                                               ; preds = %2
  call void @llvm.lifetime.end.p0(i64 8, ptr %5) #15
  ret void

22:                                               ; preds = %17
  %23 = load ptr, ptr %6, align 8
  %24 = load i32, ptr %7, align 4
  %25 = insertvalue { ptr, i32 } poison, ptr %23, 0
  %26 = insertvalue { ptr, i32 } %25, i32 %24, 1
  resume { ptr, i32 } %26
}